target datalayout = "e-m:e-p270:32:32-p271:32:32-p272:64:64-i64:64-i128:128-f80:128-n8:16:32:64-S128"
target triple = "x86_64-pc-linux-gnu"

%struct.keccak_st = type { [5 x [5 x i64]], [168 x i8], i64, i64, i64, i8, %struct.prov_sha3_meth_st, i32 }
%struct.prov_sha3_meth_st = type { ptr, ptr, ptr }

; Function Attrs: nounwind uwtable
define i32 @ossl_sha3_final(ptr noundef %0, ptr noundef %1, i64 noundef %2) #0 {
  %4 = alloca i32, align 4
  %5 = alloca ptr, align 8
  %6 = alloca ptr, align 8
  %7 = alloca i64, align 8
  %8 = alloca i64, align 8
  %9 = alloca i64, align 8
  %10 = alloca i32, align 4
  store ptr %0, ptr %5, align 8, !tbaa !3
  store ptr %1, ptr %6, align 8, !tbaa !21
  store i64 %2, ptr %7, align 8, !tbaa !15
  call void @llvm.lifetime.start.p0(i64 8, ptr %8) #5
  %11 = load ptr, ptr %5, align 8, !tbaa !3
  %12 = getelementptr inbounds nuw %struct.keccak_st, ptr %11, i32 0, i32 2
  %13 = load i64, ptr %12, align 8, !tbaa !16
  store i64 %13, ptr %8, align 8, !tbaa !15
  call void @llvm.lifetime.start.p0(i64 8, ptr %9) #5
  %14 = load ptr, ptr %5, align 8, !tbaa !3
  %15 = getelementptr inbounds nuw %struct.keccak_st, ptr %14, i32 0, i32 4
  %16 = load i64, ptr %15, align 8, !tbaa !8
  store i64 %16, ptr %9, align 8, !tbaa !15
  %17 = load i64, ptr %7, align 8, !tbaa !15
  %18 = icmp eq i64 %17, 0
  br i1 %18, label %19, label %20

19:                                               ; preds = %3
  store i32 1, ptr %4, align 4
  store i32 1, ptr %10, align 4
  br label %73

20:                                               ; preds = %3
  %21 = load ptr, ptr %5, align 8, !tbaa !3
  %22 = getelementptr inbounds nuw %struct.keccak_st, ptr %21, i32 0, i32 7
  %23 = load i32, ptr %22, align 8, !tbaa !13
  %24 = icmp eq i32 %23, 3
  br i1 %24, label %30, label %25

25:                                               ; preds = %20
  %26 = load ptr, ptr %5, align 8, !tbaa !3
  %27 = getelementptr inbounds nuw %struct.keccak_st, ptr %26, i32 0, i32 7
  %28 = load i32, ptr %27, align 8, !tbaa !13
  %29 = icmp eq i32 %28, 2
  br i1 %29, label %30, label %31

30:                                               ; preds = %25, %20
  store i32 0, ptr %4, align 4
  store i32 1, ptr %10, align 4
  br label %73

31:                                               ; preds = %25
  %32 = load ptr, ptr %5, align 8, !tbaa !3
  %33 = getelementptr inbounds nuw %struct.keccak_st, ptr %32, i32 0, i32 1
  %34 = getelementptr inbounds [168 x i8], ptr %33, i64 0, i64 0
  %35 = load i64, ptr %9, align 8, !tbaa !15
  %36 = getelementptr inbounds nuw i8, ptr %34, i64 %35
  %37 = load i64, ptr %8, align 8, !tbaa !15
  %38 = load i64, ptr %9, align 8, !tbaa !15
  %39 = sub i64 %37, %38
  call void @llvm.memset.p0.i64(ptr align 1 %36, i8 0, i64 %39, i1 false)
  %40 = load ptr, ptr %5, align 8, !tbaa !3
  %41 = getelementptr inbounds nuw %struct.keccak_st, ptr %40, i32 0, i32 5
  %42 = load i8, ptr %41, align 8, !tbaa !18
  %43 = load ptr, ptr %5, align 8, !tbaa !3
  %44 = getelementptr inbounds nuw %struct.keccak_st, ptr %43, i32 0, i32 1
  %45 = load i64, ptr %9, align 8, !tbaa !15
  %46 = getelementptr inbounds nuw [168 x i8], ptr %44, i64 0, i64 %45
  store i8 %42, ptr %46, align 1, !tbaa !14
  %47 = load ptr, ptr %5, align 8, !tbaa !3
  %48 = getelementptr inbounds nuw %struct.keccak_st, ptr %47, i32 0, i32 1
  %49 = load i64, ptr %8, align 8, !tbaa !15
  %50 = sub i64 %49, 1
  %51 = getelementptr inbounds nuw [168 x i8], ptr %48, i64 0, i64 %50
  %52 = load i8, ptr %51, align 1, !tbaa !14
  %53 = zext i8 %52 to i32
  %54 = or i32 %53, 128
  %55 = trunc i32 %54 to i8
  store i8 %55, ptr %51, align 1, !tbaa !14
  %56 = load ptr, ptr %5, align 8, !tbaa !3
  %57 = getelementptr inbounds nuw %struct.keccak_st, ptr %56, i32 0, i32 0
  %58 = getelementptr inbounds [5 x [5 x i64]], ptr %57, i64 0, i64 0
  %59 = load ptr, ptr %5, align 8, !tbaa !3
  %60 = getelementptr inbounds nuw %struct.keccak_st, ptr %59, i32 0, i32 1
  %61 = getelementptr inbounds [168 x i8], ptr %60, i64 0, i64 0
  %62 = load i64, ptr %8, align 8, !tbaa !15
  %63 = load i64, ptr %8, align 8, !tbaa !15
  %64 = call i64 @SHA3_absorb(ptr noundef %58, ptr noundef %61, i64 noundef %62, i64 noundef %63)
  %65 = load ptr, ptr %5, align 8, !tbaa !3
  %66 = getelementptr inbounds nuw %struct.keccak_st, ptr %65, i32 0, i32 7
  store i32 2, ptr %66, align 8, !tbaa !13
  %67 = load ptr, ptr %5, align 8, !tbaa !3
  %68 = getelementptr inbounds nuw %struct.keccak_st, ptr %67, i32 0, i32 0
  %69 = getelementptr inbounds [5 x [5 x i64]], ptr %68, i64 0, i64 0
  %70 = load ptr, ptr %6, align 8, !tbaa !21
  %71 = load i64, ptr %7, align 8, !tbaa !15
  %72 = load i64, ptr %8, align 8, !tbaa !15
  call void @SHA3_squeeze(ptr noundef %69, ptr noundef %70, i64 noundef %71, i64 noundef %72, i32 noundef 0)
  store i32 1, ptr %4, align 4
  store i32 1, ptr %10, align 4
  br label %73

73:                                               ; preds = %31, %30, %19
  call void @llvm.lifetime.end.p0(i64 8, ptr %9) #5
  call void @llvm.lifetime.end.p0(i64 8, ptr %8) #5
  %74 = load i32, ptr %4, align 4
  ret i32 %74
}