; Function Attrs: nounwind uwtable
define range(i32 0, 2) i32 @ossl_sha3_final(ptr noundef %0, ptr noundef %1, i64 noundef %2) local_unnamed_addr #2 {
  %4 = getelementptr inbounds nuw i8, ptr %0, i64 368
  %5 = load i64, ptr %4, align 8, !tbaa !12
  %6 = getelementptr inbounds nuw i8, ptr %0, i64 384
  %7 = load i64, ptr %6, align 8, !tbaa !3
  %8 = icmp eq i64 %2, 0
  br i1 %8, label %24, label %9

9:                                                ; preds = %3
  %10 = getelementptr inbounds nuw i8, ptr %0, i64 424
  %11 = load i32, ptr %10, align 8, !tbaa !11
  %12 = and i32 %11, -2
  %switch = icmp eq i32 %12, 2
  br i1 %switch, label %24, label %13

13:                                               ; preds = %9
  %14 = getelementptr inbounds nuw i8, ptr %0, i64 200
  %15 = getelementptr inbounds nuw i8, ptr %14, i64 %7
  %16 = sub i64 %5, %7
  tail call void @llvm.memset.p0.i64(ptr nonnull align 1 %15, i8 0, i64 %16, i1 false)
  %17 = getelementptr inbounds nuw i8, ptr %0, i64 392
  %18 = load i8, ptr %17, align 8, !tbaa !14
  store i8 %18, ptr %15, align 1, !tbaa !15
  %19 = add i64 %5, -1
  %20 = getelementptr inbounds nuw [168 x i8], ptr %14, i64 0, i64 %19
  %21 = load i8, ptr %20, align 1, !tbaa !15
  %22 = or i8 %21, -128
  store i8 %22, ptr %20, align 1, !tbaa !15
  %23 = tail call i64 @SHA3_absorb(ptr noundef nonnull %0, ptr noundef nonnull %14, i64 noundef %5, i64 noundef %5) #6
  store i32 2, ptr %10, align 8, !tbaa !11
  tail call void @SHA3_squeeze(ptr noundef nonnull %0, ptr noundef %1, i64 noundef %2, i64 noundef %5, i32 noundef 0) #6
  br label %24

24:                                               ; preds = %9, %3, %13
  %.0 = phi i32 [ 1, %13 ], [ 1, %3 ], [ 0, %9 ]
  ret i32 %.0
}